; Function Attrs: mustprogress nounwind uwtable
define hidden void @_ZNK19SpeculativeTrapData13print_data_onEP12outputStreamPKc(ptr nocapture noundef nonnull readonly align 8 dereferenceable(16) %0, ptr noundef nonnull %1, ptr noundef %2) unnamed_addr #2 align 2 {
  tail call void @_ZNK11ProfileData12print_sharedEP12outputStreamPKcS3_(ptr noundef nonnull align 8 dereferenceable(16) %0, ptr noundef %1, ptr noundef nonnull @.str.36, ptr noundef %2)
  %4 = tail call noundef i32 @_ZN12outputStream7fill_toEi(ptr noundef nonnull align 8 dereferenceable(56) %1, i32 noundef 36) #20
  %5 = getelementptr inbounds i8, ptr %0, i64 8
  %6 = load ptr, ptr %5, align 8
  %7 = getelementptr inbounds i8, ptr %6, i64 8
  %8 = load i64, ptr %7, align 8
  %9 = inttoptr i64 %8 to ptr
  tail call void @_ZNK6Method16print_short_nameEP12outputStream(ptr noundef nonnull align 8 dereferenceable(88) %9, ptr noundef nonnull %1) #20
  tail call void @_ZN12outputStream2crEv(ptr noundef nonnull align 8 dereferenceable(56) %1) #20
  ret void
}